target datalayout = "e-m:e-p270:32:32-p271:32:32-p272:64:64-i64:64-i128:128-f80:128-n8:16:32:64-S128"
target triple = "x86_64-pc-linux-gnu"

; Function Attrs: mustprogress uwtable
define noundef ptr @_ZN3net15QuicSpdySession17GetSpdyDataStreamEj(ptr noundef nonnull align 8 dereferenceable(2057) %0, i32 noundef %1) #0 align 2 {
  %3 = alloca ptr, align 8
  %4 = alloca i32, align 4
  store ptr %0, ptr %3, align 8, !tbaa !3
  store i32 %1, ptr %4, align 4, !tbaa !115
  %5 = load ptr, ptr %3, align 8
  %6 = load i32, ptr %4, align 4, !tbaa !115
  %7 = call noundef ptr @_ZN3net11QuicSession24GetOrCreateDynamicStreamEj(ptr noundef nonnull align 8 dereferenceable(2044) %5, i32 noundef %6)
  ret ptr %7
}

; Function Attrs: mustprogress uwtable
define void @_ZN3net15QuicSpdySession23OnStreamHeadersCompleteEjbm(ptr noundef nonnull align 8 dereferenceable(2057) %0, i32 noundef %1, i1 noundef zeroext %2, i64 noundef %3) unnamed_addr #0 align 2 {
  %5 = alloca ptr, align 8
  %6 = alloca i32, align 4
  %7 = alloca i8, align 1
  %8 = alloca i64, align 8
  %9 = alloca ptr, align 8
  %10 = alloca i32, align 4
  store ptr %0, ptr %5, align 8, !tbaa !3
  store i32 %1, ptr %6, align 4, !tbaa !115
  %11 = zext i1 %2 to i8
  store i8 %11, ptr %7, align 1, !tbaa !138
  store i64 %3, ptr %8, align 8, !tbaa !136
  %12 = load ptr, ptr %5, align 8
  call void @llvm.lifetime.start.p0(i64 8, ptr %9) #16
  %13 = load i32, ptr %6, align 4, !tbaa !115
  %14 = call noundef ptr @_ZN3net15QuicSpdySession17GetSpdyDataStreamEj(ptr noundef nonnull align 8 dereferenceable(2057) %12, i32 noundef %13)
  store ptr %14, ptr %9, align 8, !tbaa !132
  %15 = load ptr, ptr %9, align 8, !tbaa !132
  %16 = icmp ne ptr %15, null
  br i1 %16, label %18, label %17

17:                                               ; preds = %4
  store i32 1, ptr %10, align 4
  br label %26

18:                                               ; preds = %4
  %19 = load ptr, ptr %9, align 8, !tbaa !132
  %20 = load i8, ptr %7, align 1, !tbaa !138, !range !139, !noundef !140
  %21 = trunc i8 %20 to i1
  %22 = load i64, ptr %8, align 8, !tbaa !136
  %23 = load ptr, ptr %19, align 8, !tbaa !12
  %24 = getelementptr inbounds ptr, ptr %23, i64 17
  %25 = load ptr, ptr %24, align 8
  call void %25(ptr noundef nonnull align 8 dereferenceable(664) %19, i1 noundef zeroext %21, i64 noundef %22)
  store i32 0, ptr %10, align 4
  br label %26

26:                                               ; preds = %18, %17
  call void @llvm.lifetime.end.p0(i64 8, ptr %9) #16
  %27 = load i32, ptr %10, align 4
  switch i32 %27, label %29 [
    i32 0, label %28
    i32 1, label %28
  ]

28:                                               ; preds = %26, %26
  ret void

29:                                               ; preds = %26
  unreachable
}