; Function Attrs: mustprogress uwtable
define void @_ZN3net15QuicSpdySession23OnStreamHeadersCompleteEjbm(ptr noundef nonnull align 8 dereferenceable(2057) %0, i32 noundef %1, i1 noundef zeroext %2, i64 noundef %3) unnamed_addr #0 align 2 {
  %5 = tail call noundef ptr @_ZN3net11QuicSession24GetOrCreateDynamicStreamEj(ptr noundef nonnull align 8 dereferenceable(2057) %0, i32 noundef %1)
  %.not = icmp eq ptr %5, null
  br i1 %.not, label %10, label %6

6:                                                ; preds = %4
  %7 = load ptr, ptr %5, align 8, !tbaa !3
  %8 = getelementptr inbounds nuw i8, ptr %7, i64 136
  %9 = load ptr, ptr %8, align 8
  tail call void %9(ptr noundef nonnull align 8 dereferenceable(664) %5, i1 noundef zeroext %2, i64 noundef %3)
  br label %10

10:                                               ; preds = %4, %6
  ret void
}